target datalayout = "e-m:e-p270:32:32-p271:32:32-p272:64:64-i64:64-i128:128-f80:128-n8:16:32:64-S128"
target triple = "x86_64-pc-linux-gnu"

%"class.DFSRndNumGenerator::SearchState" = type { i8, i32, i32, i32 }

; Function Attrs: mustprogress nounwind uwtable
define dso_local void @_ZN18DFSRndNumGenerator11SearchStateC2ERKS0_(ptr noundef nonnull align 4 dereferenceable(16) %0, ptr noundef nonnull align 4 dereferenceable(16) %1) unnamed_addr #4 align 2 {
  %3 = alloca ptr, align 8
  %4 = alloca ptr, align 8
  store ptr %0, ptr %3, align 8
  store ptr %1, ptr %4, align 8
  %5 = load ptr, ptr %3, align 8
  %6 = getelementptr inbounds %"class.DFSRndNumGenerator::SearchState", ptr %5, i32 0, i32 0
  %7 = load ptr, ptr %4, align 8
  %8 = getelementptr inbounds %"class.DFSRndNumGenerator::SearchState", ptr %7, i32 0, i32 0
  %9 = load i8, ptr %8, align 4
  %10 = trunc i8 %9 to i1
  %11 = zext i1 %10 to i8
  store i8 %11, ptr %6, align 4
  %12 = getelementptr inbounds %"class.DFSRndNumGenerator::SearchState", ptr %5, i32 0, i32 1
  %13 = load ptr, ptr %4, align 8
  %14 = getelementptr inbounds %"class.DFSRndNumGenerator::SearchState", ptr %13, i32 0, i32 1
  %15 = load i32, ptr %14, align 4
  store i32 %15, ptr %12, align 4
  %16 = getelementptr inbounds %"class.DFSRndNumGenerator::SearchState", ptr %5, i32 0, i32 2
  %17 = load ptr, ptr %4, align 8
  %18 = getelementptr inbounds %"class.DFSRndNumGenerator::SearchState", ptr %17, i32 0, i32 2
  %19 = load i32, ptr %18, align 4
  store i32 %19, ptr %16, align 4
  %20 = getelementptr inbounds %"class.DFSRndNumGenerator::SearchState", ptr %5, i32 0, i32 3
  %21 = load ptr, ptr %4, align 8
  %22 = getelementptr inbounds %"class.DFSRndNumGenerator::SearchState", ptr %21, i32 0, i32 3
  %23 = load i32, ptr %22, align 4
  store i32 %23, ptr %20, align 4
  ret void
}