; Function Attrs: mustprogress nofree norecurse nosync nounwind willreturn memory(argmem: readwrite) uwtable
define dso_local void @_ZN18DFSRndNumGenerator11SearchStateC2ERKS0_(ptr nocapture noundef nonnull writeonly align 4 dereferenceable(16) %0, ptr nocapture noundef nonnull readonly align 4 dereferenceable(16) %1) unnamed_addr #4 align 2 {
  %3 = load i8, ptr %1, align 4
  %4 = and i8 %3, 1
  store i8 %4, ptr %0, align 4
  %5 = getelementptr inbounds i8, ptr %0, i64 4
  %6 = getelementptr inbounds i8, ptr %1, i64 4
  %7 = load i32, ptr %6, align 4
  store i32 %7, ptr %5, align 4
  %8 = getelementptr inbounds i8, ptr %0, i64 8
  %9 = getelementptr inbounds i8, ptr %1, i64 8
  %10 = load i32, ptr %9, align 4
  store i32 %10, ptr %8, align 4
  %11 = getelementptr inbounds i8, ptr %0, i64 12
  %12 = getelementptr inbounds i8, ptr %1, i64 12
  %13 = load i32, ptr %12, align 4
  store i32 %13, ptr %11, align 4
  ret void
}